ARM GAS  C:\Users\CHANTI~1\AppData\Local\Temp\ccvN8pu4.s 			page 1


   1              		.syntax unified
   2              		.cpu cortex-m3
   3              		.fpu softvfp
   4              		.eabi_attribute 20, 1
   5              		.eabi_attribute 21, 1
   6              		.eabi_attribute 23, 3
   7              		.eabi_attribute 24, 1
   8              		.eabi_attribute 25, 1
   9              		.eabi_attribute 26, 1
  10              		.eabi_attribute 30, 1
  11              		.eabi_attribute 34, 1
  12              		.eabi_attribute 18, 4
  13              		.thumb
  14              		.syntax unified
  15              		.file	"main.c"
  16              		.text
  17              	.Ltext0:
  18              		.cfi_sections	.debug_frame
  19              		.section	.text.startup,"ax",%progbits
  20              		.align	2
  21              		.global	startup
  22              		.thumb
  23              		.thumb_func
  24              		.type	startup, %function
  25              	startup:
  26              	.LFB64:
  27              		.file 1 "main.c"
   1:main.c        **** #include "project.h"
   2:main.c        **** #include <stdio.h>
   3:main.c        **** 
   4:main.c        **** #define EP_IN 1 // Endpoint for reading data from HID
   5:main.c        **** #define EP_OUT 2 // Endpoint for sending data from host to HID
   6:main.c        **** 
   7:main.c        **** #define BUTTON_SIZE 2 // 2 indices for 2 bytes of button data
   8:main.c        **** 
   9:main.c        **** static uint8 USB_INPUT[BUTTON_SIZE];
  10:main.c        **** static uint8 USB_OUTPUT[BUTTON_SIZE];
  11:main.c        **** int flash_time = 70;
  12:main.c        **** 
  13:main.c        **** void startup(void){
  28              		.loc 1 13 0
  29              		.cfi_startproc
  30              		@ args = 0, pretend = 0, frame = 0
  31              		@ frame_needed = 0, uses_anonymous_args = 0
  32 0000 08B5     		push	{r3, lr}
  33              		.cfi_def_cfa_offset 8
  34              		.cfi_offset 3, -8
  35              		.cfi_offset 14, -4
  36              	.LVL0:
  37              	.LBB2:
  14:main.c        ****     // initalize all arrays
  15:main.c        ****     for(uint8 j = 0; j < BUTTON_SIZE; j++){
  38              		.loc 1 15 0
  39 0002 0023     		movs	r3, #0
  40 0004 04E0     		b	.L2
  41              	.LVL1:
  42              	.L3:
ARM GAS  C:\Users\CHANTI~1\AppData\Local\Temp\ccvN8pu4.s 			page 2


  16:main.c        ****         USB_INPUT[j] = 0;
  43              		.loc 1 16 0 discriminator 3
  44 0006 0021     		movs	r1, #0
  45 0008 0E4A     		ldr	r2, .L8
  46 000a D154     		strb	r1, [r2, r3]
  15:main.c        ****         USB_INPUT[j] = 0;
  47              		.loc 1 15 0 discriminator 3
  48 000c 0133     		adds	r3, r3, #1
  49              	.LVL2:
  50 000e DBB2     		uxtb	r3, r3
  51              	.LVL3:
  52              	.L2:
  15:main.c        ****         USB_INPUT[j] = 0;
  53              		.loc 1 15 0 is_stmt 0 discriminator 1
  54 0010 012B     		cmp	r3, #1
  55 0012 F8D9     		bls	.L3
  56 0014 0023     		movs	r3, #0
  57              	.LVL4:
  58 0016 01E0     		b	.L4
  59              	.LVL5:
  60              	.L5:
  61              	.LBE2:
  62              	.LBB3:
  17:main.c        ****     }    
  18:main.c        ****     for(uint8 k = 0; k < BUTTON_SIZE; k++){
  63              		.loc 1 18 0 is_stmt 1 discriminator 3
  64 0018 0133     		adds	r3, r3, #1
  65              	.LVL6:
  66 001a DBB2     		uxtb	r3, r3
  67              	.LVL7:
  68              	.L4:
  69              		.loc 1 18 0 is_stmt 0 discriminator 1
  70 001c 012B     		cmp	r3, #1
  71 001e FBD9     		bls	.L5
  72              	.LBE3:
  19:main.c        ****         USB_OUTPUT[k] = 0;
  20:main.c        ****     }  
  21:main.c        ****     
  22:main.c        ****     CyGlobalIntEnable // enable global interrupts 
  73              		.loc 1 22 0 is_stmt 1
  74              		.syntax unified
  75              	@ 22 "main.c" 1
  76 0020 62B6     		CPSIE   i
  77              	@ 0 "" 2
  23:main.c        ****     USB_Start(0, USB_DWR_VDDD_OPERATION); // start usb port with bus power
  78              		.loc 1 23 0
  79              		.thumb
  80              		.syntax unified
  81 0022 0221     		movs	r1, #2
  82 0024 0020     		movs	r0, #0
  83 0026 FFF7FEFF 		bl	USB_Start
  84              	.LVL8:
  85              	.L6:
  24:main.c        ****     while(!USB_bGetConfiguration()){} // wait to configure the usb port
  86              		.loc 1 24 0 discriminator 1
  87 002a FFF7FEFF 		bl	USB_GetConfiguration
  88              	.LVL9:
ARM GAS  C:\Users\CHANTI~1\AppData\Local\Temp\ccvN8pu4.s 			page 3


  89 002e 0028     		cmp	r0, #0
  90 0030 FBD0     		beq	.L6
  25:main.c        ****     
  26:main.c        ****     USB_LoadInEP(EP_IN, (uint8 *)USB_INPUT, sizeof(USB_INPUT)); // Initial load-in of port
  91              		.loc 1 26 0
  92 0032 0222     		movs	r2, #2
  93 0034 0349     		ldr	r1, .L8
  94 0036 0120     		movs	r0, #1
  95 0038 FFF7FEFF 		bl	USB_LoadInEP
  96              	.LVL10:
  27:main.c        ****     USB_EnableOutEP(EP_OUT);
  97              		.loc 1 27 0
  98 003c 0220     		movs	r0, #2
  99 003e FFF7FEFF 		bl	USB_EnableOutEP
 100              	.LVL11:
 101 0042 08BD     		pop	{r3, pc}
 102              	.L9:
 103              		.align	2
 104              	.L8:
 105 0044 00000000 		.word	.LANCHOR0
 106              		.cfi_endproc
 107              	.LFE64:
 108              		.size	startup, .-startup
 109              		.section	.text.read_buttons,"ax",%progbits
 110              		.align	2
 111              		.global	read_buttons
 112              		.thumb
 113              		.thumb_func
 114              		.type	read_buttons, %function
 115              	read_buttons:
 116              	.LFB65:
  28:main.c        **** }
  29:main.c        **** 
  30:main.c        **** void read_buttons(void){
 117              		.loc 1 30 0
 118              		.cfi_startproc
 119              		@ args = 0, pretend = 0, frame = 0
 120              		@ frame_needed = 0, uses_anonymous_args = 0
 121 0000 10B5     		push	{r4, lr}
 122              		.cfi_def_cfa_offset 8
 123              		.cfi_offset 4, -8
 124              		.cfi_offset 14, -4
  31:main.c        ****     USB_INPUT[0] = Status_1_8_Read();
 125              		.loc 1 31 0
 126 0002 FFF7FEFF 		bl	Status_1_8_Read
 127              	.LVL12:
 128 0006 034C     		ldr	r4, .L12
 129 0008 2070     		strb	r0, [r4]
  32:main.c        ****     USB_INPUT[1] = Status_9_11_Read();
 130              		.loc 1 32 0
 131 000a FFF7FEFF 		bl	Status_9_11_Read
 132              	.LVL13:
 133 000e 6070     		strb	r0, [r4, #1]
 134 0010 10BD     		pop	{r4, pc}
 135              	.L13:
 136 0012 00BF     		.align	2
 137              	.L12:
ARM GAS  C:\Users\CHANTI~1\AppData\Local\Temp\ccvN8pu4.s 			page 4


 138 0014 00000000 		.word	.LANCHOR0
 139              		.cfi_endproc
 140              	.LFE65:
 141              		.size	read_buttons, .-read_buttons
 142              		.section	.text.write_leds,"ax",%progbits
 143              		.align	2
 144              		.global	write_leds
 145              		.thumb
 146              		.thumb_func
 147              		.type	write_leds, %function
 148              	write_leds:
 149              	.LFB66:
  33:main.c        **** }
  34:main.c        **** 
  35:main.c        **** void write_leds(void){
 150              		.loc 1 35 0
 151              		.cfi_startproc
 152              		@ args = 0, pretend = 0, frame = 0
 153              		@ frame_needed = 0, uses_anonymous_args = 0
 154 0000 10B5     		push	{r4, lr}
 155              		.cfi_def_cfa_offset 8
 156              		.cfi_offset 4, -8
 157              		.cfi_offset 14, -4
  36:main.c        ****     LEDs_1_8_Write(USB_INPUT[0]);
 158              		.loc 1 36 0
 159 0002 044C     		ldr	r4, .L16
 160 0004 2078     		ldrb	r0, [r4]	@ zero_extendqisi2
 161 0006 FFF7FEFF 		bl	LEDs_1_8_Write
 162              	.LVL14:
  37:main.c        ****     LEDs_9_10_Write(USB_INPUT[1]);
 163              		.loc 1 37 0
 164 000a 6078     		ldrb	r0, [r4, #1]	@ zero_extendqisi2
 165 000c FFF7FEFF 		bl	LEDs_9_10_Write
 166              	.LVL15:
 167 0010 10BD     		pop	{r4, pc}
 168              	.L17:
 169 0012 00BF     		.align	2
 170              	.L16:
 171 0014 00000000 		.word	.LANCHOR0
 172              		.cfi_endproc
 173              	.LFE66:
 174              		.size	write_leds, .-write_leds
 175              		.section	.text.blink_button,"ax",%progbits
 176              		.align	2
 177              		.global	blink_button
 178              		.thumb
 179              		.thumb_func
 180              		.type	blink_button, %function
 181              	blink_button:
 182              	.LFB67:
  38:main.c        **** }
  39:main.c        **** 
  40:main.c        **** void blink_button(void){
 183              		.loc 1 40 0
 184              		.cfi_startproc
 185              		@ args = 0, pretend = 0, frame = 0
 186              		@ frame_needed = 0, uses_anonymous_args = 0
ARM GAS  C:\Users\CHANTI~1\AppData\Local\Temp\ccvN8pu4.s 			page 5


 187 0000 38B5     		push	{r3, r4, r5, lr}
 188              		.cfi_def_cfa_offset 16
 189              		.cfi_offset 3, -16
 190              		.cfi_offset 4, -12
 191              		.cfi_offset 5, -8
 192              		.cfi_offset 14, -4
 193              	.LVL16:
 194              	.LBB4:
  41:main.c        ****     for(int i = 0; i < 10; i++){
 195              		.loc 1 41 0
 196 0002 0024     		movs	r4, #0
 197 0004 0DE0     		b	.L19
 198              	.LVL17:
 199              	.L20:
  42:main.c        ****         Internal_LED_Write(1);
 200              		.loc 1 42 0 discriminator 3
 201 0006 0120     		movs	r0, #1
 202 0008 FFF7FEFF 		bl	Internal_LED_Write
 203              	.LVL18:
  43:main.c        ****         CyDelay(flash_time);
 204              		.loc 1 43 0 discriminator 3
 205 000c 064D     		ldr	r5, .L22
 206 000e 2868     		ldr	r0, [r5]
 207 0010 FFF7FEFF 		bl	CyDelay
 208              	.LVL19:
  44:main.c        ****         Internal_LED_Write(0);
 209              		.loc 1 44 0 discriminator 3
 210 0014 0020     		movs	r0, #0
 211 0016 FFF7FEFF 		bl	Internal_LED_Write
 212              	.LVL20:
  45:main.c        ****         CyDelay(flash_time);
 213              		.loc 1 45 0 discriminator 3
 214 001a 2868     		ldr	r0, [r5]
 215 001c FFF7FEFF 		bl	CyDelay
 216              	.LVL21:
  41:main.c        ****         Internal_LED_Write(1);
 217              		.loc 1 41 0 discriminator 3
 218 0020 0134     		adds	r4, r4, #1
 219              	.LVL22:
 220              	.L19:
  41:main.c        ****         Internal_LED_Write(1);
 221              		.loc 1 41 0 is_stmt 0 discriminator 1
 222 0022 092C     		cmp	r4, #9
 223 0024 EFDD     		ble	.L20
 224              	.LBE4:
  46:main.c        ****     } 
  47:main.c        **** }
 225              		.loc 1 47 0 is_stmt 1
 226 0026 38BD     		pop	{r3, r4, r5, pc}
 227              	.LVL23:
 228              	.L23:
 229              		.align	2
 230              	.L22:
 231 0028 00000000 		.word	.LANCHOR1
 232              		.cfi_endproc
 233              	.LFE67:
 234              		.size	blink_button, .-blink_button
ARM GAS  C:\Users\CHANTI~1\AppData\Local\Temp\ccvN8pu4.s 			page 6


 235              		.section	.text.main,"ax",%progbits
 236              		.align	2
 237              		.global	main
 238              		.thumb
 239              		.thumb_func
 240              		.type	main, %function
 241              	main:
 242              	.LFB68:
  48:main.c        **** 
  49:main.c        **** int main(void)
  50:main.c        **** {
 243              		.loc 1 50 0
 244              		.cfi_startproc
 245              		@ Volatile: function does not return.
 246              		@ args = 0, pretend = 0, frame = 0
 247              		@ frame_needed = 0, uses_anonymous_args = 0
 248 0000 08B5     		push	{r3, lr}
 249              		.cfi_def_cfa_offset 8
 250              		.cfi_offset 3, -8
 251              		.cfi_offset 14, -4
  51:main.c        ****     startup();
 252              		.loc 1 51 0
 253 0002 FFF7FEFF 		bl	startup
 254              	.LVL24:
  52:main.c        ****     
  53:main.c        ****     blink_button();
 255              		.loc 1 53 0
 256 0006 FFF7FEFF 		bl	blink_button
 257              	.LVL25:
 258              	.L25:
  54:main.c        ****     
  55:main.c        ****     for(;;)
  56:main.c        ****     {
  57:main.c        ****     
  58:main.c        ****     while(!USB_bGetEPAckState(EP_IN)); // Wait for ACK signal before sending data
 259              		.loc 1 58 0 discriminator 1
 260 000a 0120     		movs	r0, #1
 261 000c FFF7FEFF 		bl	USB_GetEPAckState
 262              	.LVL26:
 263 0010 0028     		cmp	r0, #0
 264 0012 FAD0     		beq	.L25
  59:main.c        ****     
  60:main.c        ****     read_buttons(); // Store button values in an array
 265              		.loc 1 60 0
 266 0014 FFF7FEFF 		bl	read_buttons
 267              	.LVL27:
  61:main.c        ****     write_leds();
 268              		.loc 1 61 0
 269 0018 FFF7FEFF 		bl	write_leds
 270              	.LVL28:
  62:main.c        ****     
  63:main.c        ****      // if usb reading data is empty, write
  64:main.c        ****     if (USB_GetEPState(EP_IN) == USB_IN_BUFFER_EMPTY){
 271              		.loc 1 64 0
 272 001c 0120     		movs	r0, #1
 273 001e FFF7FEFF 		bl	USB_GetEPState
 274              	.LVL29:
ARM GAS  C:\Users\CHANTI~1\AppData\Local\Temp\ccvN8pu4.s 			page 7


 275 0022 0128     		cmp	r0, #1
 276 0024 F1D1     		bne	.L25
  65:main.c        ****         USB_LoadInEP(EP_IN, (uint8 *)USB_INPUT, sizeof(USB_INPUT)); // check last parameter
 277              		.loc 1 65 0
 278 0026 0222     		movs	r2, #2
 279 0028 0149     		ldr	r1, .L29
 280 002a FFF7FEFF 		bl	USB_LoadInEP
 281              	.LVL30:
 282 002e ECE7     		b	.L25
 283              	.L30:
 284              		.align	2
 285              	.L29:
 286 0030 00000000 		.word	.LANCHOR0
 287              		.cfi_endproc
 288              	.LFE68:
 289              		.size	main, .-main
 290              		.global	flash_time
 291              		.data
 292              		.align	2
 293              		.set	.LANCHOR1,. + 0
 294              		.type	flash_time, %object
 295              		.size	flash_time, 4
 296              	flash_time:
 297 0000 46000000 		.word	70
 298              		.bss
 299              		.align	2
 300              		.set	.LANCHOR0,. + 0
 301              		.type	USB_INPUT, %object
 302              		.size	USB_INPUT, 2
 303              	USB_INPUT:
 304 0000 0000     		.space	2
 305              		.text
 306              	.Letext0:
 307              		.file 2 "c:\\program files (x86)\\cypress\\psoc creator\\4.2\\psoc creator\\import\\gnu\\arm\\5.4.
 308              		.file 3 "c:\\program files (x86)\\cypress\\psoc creator\\4.2\\psoc creator\\import\\gnu\\arm\\5.4.
 309              		.file 4 "Generated_Source\\PSoC5/cytypes.h"
 310              		.file 5 "Generated_Source\\PSoC5/core_cm3.h"
 311              		.file 6 "Generated_Source\\PSoC5/USB.h"
 312              		.file 7 "Generated_Source\\PSoC5/Status_1_8.h"
 313              		.file 8 "Generated_Source\\PSoC5/Status_9_11.h"
 314              		.file 9 "Generated_Source\\PSoC5/LEDs_1_8.h"
 315              		.file 10 "Generated_Source\\PSoC5/LEDs_9_10.h"
 316              		.file 11 "Generated_Source\\PSoC5/Internal_LED.h"
 317              		.file 12 "Generated_Source\\PSoC5/CyLib.h"